; Function Attrs: mustprogress nofree norecurse nosync nounwind willreturn memory(argmem: readwrite) uwtable
define internal noundef zeroext i1 @"_ZNSt17_Function_handlerIFvPN3g2o16OptimizableGraph6VertexEEZNS1_8setFixedERSt3setIPNS0_10HyperGraph6VertexESt4lessIS8_ESaIS8_EEbE3$_0E10_M_managerERSt9_Any_dataRKSG_St18_Manager_operation"(ptr noundef nonnull writeonly align 8 captures(none) dereferenceable(16) %0, ptr noundef nonnull align 8 dereferenceable(16) %1, i32 noundef %2) #28 align 2 personality ptr @__gxx_personality_v0 {
  switch i32 %2, label %"_ZNSt14_Function_base13_Base_managerIZN3g2o16OptimizableGraph8setFixedERSt3setIPNS1_10HyperGraph6VertexESt4lessIS6_ESaIS6_EEbE3$_0E10_M_managerERSt9_Any_dataRKSE_St18_Manager_operation.exit" [
    i32 0, label %4
    i32 1, label %5
    i32 2, label %6
  ]

4:                                                ; preds = %3
  store ptr @"_ZTIZN3g2o16OptimizableGraph8setFixedERSt3setIPNS_10HyperGraph6VertexESt4lessIS4_ESaIS4_EEbE3$_0", ptr %0, align 8, !tbaa !278
  br label %"_ZNSt14_Function_base13_Base_managerIZN3g2o16OptimizableGraph8setFixedERSt3setIPNS1_10HyperGraph6VertexESt4lessIS6_ESaIS6_EEbE3$_0E10_M_managerERSt9_Any_dataRKSE_St18_Manager_operation.exit"

5:                                                ; preds = %3
  store ptr %1, ptr %0, align 8, !tbaa !275
  br label %"_ZNSt14_Function_base13_Base_managerIZN3g2o16OptimizableGraph8setFixedERSt3setIPNS1_10HyperGraph6VertexESt4lessIS6_ESaIS6_EEbE3$_0E10_M_managerERSt9_Any_dataRKSE_St18_Manager_operation.exit"

6:                                                ; preds = %3
  %.val.i = load i8, ptr %1, align 8, !tbaa !149
  store i8 %.val.i, ptr %0, align 8, !tbaa !149
  br label %"_ZNSt14_Function_base13_Base_managerIZN3g2o16OptimizableGraph8setFixedERSt3setIPNS1_10HyperGraph6VertexESt4lessIS6_ESaIS6_EEbE3$_0E10_M_managerERSt9_Any_dataRKSE_St18_Manager_operation.exit"

"_ZNSt14_Function_base13_Base_managerIZN3g2o16OptimizableGraph8setFixedERSt3setIPNS1_10HyperGraph6VertexESt4lessIS6_ESaIS6_EEbE3$_0E10_M_managerERSt9_Any_dataRKSE_St18_Manager_operation.exit": ; preds = %3, %6, %5, %4
  ret i1 false
}